; Function Attrs: mustprogress nofree norecurse nosync nounwind willreturn memory(argmem: write) uwtable
define void @Cudd_AutodynEnableZdd(ptr noundef writeonly captures(none) initializes((488, 492)) %0, i32 noundef %1) local_unnamed_addr #6 {
  %3 = getelementptr inbounds nuw i8, ptr %0, i64 488
  store i32 1, ptr %3, align 8
  %.not = icmp eq i32 %1, 0
  br i1 %.not, label %6, label %4

4:                                                ; preds = %2
  %5 = getelementptr inbounds nuw i8, ptr %0, i64 496
  store i32 %1, ptr %5, align 8
  br label %6

6:                                                ; preds = %4, %2
  ret void
}